target datalayout = "e-m:e-p270:32:32-p271:32:32-p272:64:64-i64:64-i128:128-f80:128-n8:16:32:64-S128"
target triple = "x86_64-pc-linux-gnu"

%struct.DdNode = type { i32, i32, ptr, %union.anon, i64 }
%union.anon = type { %struct.DdChildren }
%struct.DdChildren = type { ptr, ptr }
%struct.cuddPathPair = type { i32, i32 }

@zero = internal global ptr null, align 8

; Function Attrs: nounwind uwtable
define internal i64 @getShortest(ptr noundef %0, ptr noundef %1, ptr noundef %2, ptr noundef %3) #0 {
  %5 = alloca %struct.cuddPathPair, align 4
  %6 = alloca ptr, align 8
  %7 = alloca ptr, align 8
  %8 = alloca ptr, align 8
  %9 = alloca ptr, align 8
  %10 = alloca ptr, align 8
  %11 = alloca %struct.cuddPathPair, align 4
  %12 = alloca %struct.cuddPathPair, align 4
  %13 = alloca ptr, align 8
  %14 = alloca ptr, align 8
  %15 = alloca ptr, align 8
  %16 = alloca i32, align 4
  %17 = alloca i32, align 4
  %18 = alloca %struct.cuddPathPair, align 4
  %19 = alloca %struct.cuddPathPair, align 4
  %20 = alloca i32, align 4
  store ptr %0, ptr %6, align 8, !tbaa !8
  store ptr %1, ptr %7, align 8, !tbaa !10
  store ptr %2, ptr %8, align 8, !tbaa !10
  store ptr %3, ptr %9, align 8, !tbaa !37
  call void @llvm.lifetime.start.p0(i64 8, ptr %10) #6
  call void @llvm.lifetime.start.p0(i64 8, ptr %11) #6
  call void @llvm.lifetime.start.p0(i64 8, ptr %12) #6
  call void @llvm.lifetime.start.p0(i64 8, ptr %13) #6
  call void @llvm.lifetime.start.p0(i64 8, ptr %14) #6
  call void @llvm.lifetime.start.p0(i64 8, ptr %15) #6
  call void @llvm.lifetime.start.p0(i64 4, ptr %16) #6
  %21 = load ptr, ptr %6, align 8, !tbaa !8
  %22 = ptrtoint ptr %21 to i64
  %23 = and i64 %22, -2
  %24 = inttoptr i64 %23 to ptr
  store ptr %24, ptr %13, align 8, !tbaa !8
  %25 = load ptr, ptr %9, align 8, !tbaa !37
  %26 = load ptr, ptr %13, align 8, !tbaa !8
  %27 = call i32 @st__lookup(ptr noundef %25, ptr noundef %26, ptr noundef %10)
  %28 = icmp ne i32 %27, 0
  br i1 %28, label %29, label %54

29:                                               ; preds = %4
  %30 = load ptr, ptr %6, align 8, !tbaa !8
  %31 = ptrtoint ptr %30 to i64
  %32 = and i64 %31, 1
  %33 = trunc i64 %32 to i32
  %34 = icmp ne i32 %33, 0
  br i1 %34, label %35, label %44

35:                                               ; preds = %29
  %36 = load ptr, ptr %10, align 8, !tbaa !39
  %37 = getelementptr inbounds nuw %struct.cuddPathPair, ptr %36, i32 0, i32 1
  %38 = load i32, ptr %37, align 4, !tbaa !41
  %39 = getelementptr inbounds nuw %struct.cuddPathPair, ptr %5, i32 0, i32 0
  store i32 %38, ptr %39, align 4, !tbaa !43
  %40 = load ptr, ptr %10, align 8, !tbaa !39
  %41 = getelementptr inbounds nuw %struct.cuddPathPair, ptr %40, i32 0, i32 0
  %42 = load i32, ptr %41, align 4, !tbaa !43
  %43 = getelementptr inbounds nuw %struct.cuddPathPair, ptr %5, i32 0, i32 1
  store i32 %42, ptr %43, align 4, !tbaa !41
  br label %53

44:                                               ; preds = %29
  %45 = load ptr, ptr %10, align 8, !tbaa !39
  %46 = getelementptr inbounds nuw %struct.cuddPathPair, ptr %45, i32 0, i32 0
  %47 = load i32, ptr %46, align 4, !tbaa !43
  %48 = getelementptr inbounds nuw %struct.cuddPathPair, ptr %5, i32 0, i32 0
  store i32 %47, ptr %48, align 4, !tbaa !43
  %49 = load ptr, ptr %10, align 8, !tbaa !39
  %50 = getelementptr inbounds nuw %struct.cuddPathPair, ptr %49, i32 0, i32 1
  %51 = load i32, ptr %50, align 4, !tbaa !41
  %52 = getelementptr inbounds nuw %struct.cuddPathPair, ptr %5, i32 0, i32 1
  store i32 %51, ptr %52, align 4, !tbaa !41
  br label %53

53:                                               ; preds = %44, %35
  store i32 1, ptr %17, align 4
  br label %204

54:                                               ; preds = %4
  %55 = load ptr, ptr %13, align 8, !tbaa !8
  %56 = getelementptr inbounds nuw %struct.DdNode, ptr %55, i32 0, i32 0
  %57 = load i32, ptr %56, align 8, !tbaa !14
  %58 = icmp eq i32 %57, 2147483647
  br i1 %58, label %59, label %70

59:                                               ; preds = %54
  %60 = load ptr, ptr %13, align 8, !tbaa !8
  %61 = load ptr, ptr @zero, align 8, !tbaa !8
  %62 = icmp ne ptr %60, %61
  br i1 %62, label %63, label %66

63:                                               ; preds = %59
  %64 = getelementptr inbounds nuw %struct.cuddPathPair, ptr %5, i32 0, i32 0
  store i32 0, ptr %64, align 4, !tbaa !43
  %65 = getelementptr inbounds nuw %struct.cuddPathPair, ptr %5, i32 0, i32 1
  store i32 1000000, ptr %65, align 4, !tbaa !41
  br label %69

66:                                               ; preds = %59
  %67 = getelementptr inbounds nuw %struct.cuddPathPair, ptr %5, i32 0, i32 0
  store i32 1000000, ptr %67, align 4, !tbaa !43
  %68 = getelementptr inbounds nuw %struct.cuddPathPair, ptr %5, i32 0, i32 1
  store i32 0, ptr %68, align 4, !tbaa !41
  br label %69

69:                                               ; preds = %66, %63
  br label %148

70:                                               ; preds = %54
  %71 = load ptr, ptr %13, align 8, !tbaa !8
  %72 = getelementptr inbounds nuw %struct.DdNode, ptr %71, i32 0, i32 3
  %73 = getelementptr inbounds nuw %struct.DdChildren, ptr %72, i32 0, i32 0
  %74 = load ptr, ptr %73, align 8, !tbaa !17
  store ptr %74, ptr %14, align 8, !tbaa !8
  %75 = load ptr, ptr %13, align 8, !tbaa !8
  %76 = getelementptr inbounds nuw %struct.DdNode, ptr %75, i32 0, i32 3
  %77 = getelementptr inbounds nuw %struct.DdChildren, ptr %76, i32 0, i32 1
  %78 = load ptr, ptr %77, align 8, !tbaa !17
  store ptr %78, ptr %15, align 8, !tbaa !8
  call void @llvm.lifetime.start.p0(i64 8, ptr %18) #6
  %79 = load ptr, ptr %14, align 8, !tbaa !8
  %80 = load ptr, ptr %7, align 8, !tbaa !10
  %81 = load ptr, ptr %8, align 8, !tbaa !10
  %82 = load ptr, ptr %9, align 8, !tbaa !37
  %83 = call i64 @getShortest(ptr noundef %79, ptr noundef %80, ptr noundef %81, ptr noundef %82)
  store i64 %83, ptr %18, align 4
  call void @llvm.memcpy.p0.p0.i64(ptr align 4 %11, ptr align 4 %18, i64 8, i1 false), !tbaa.struct !45
  call void @llvm.lifetime.end.p0(i64 8, ptr %18) #6
  call void @llvm.lifetime.start.p0(i64 8, ptr %19) #6
  %84 = load ptr, ptr %15, align 8, !tbaa !8
  %85 = load ptr, ptr %7, align 8, !tbaa !10
  %86 = load ptr, ptr %8, align 8, !tbaa !10
  %87 = load ptr, ptr %9, align 8, !tbaa !37
  %88 = call i64 @getShortest(ptr noundef %84, ptr noundef %85, ptr noundef %86, ptr noundef %87)
  store i64 %88, ptr %19, align 4
  call void @llvm.memcpy.p0.p0.i64(ptr align 4 %12, ptr align 4 %19, i64 8, i1 false), !tbaa.struct !45
  call void @llvm.lifetime.end.p0(i64 8, ptr %19) #6
  %89 = load ptr, ptr %7, align 8, !tbaa !10
  %90 = icmp eq ptr %89, null
  br i1 %90, label %91, label %92

91:                                               ; preds = %70
  br label %100

92:                                               ; preds = %70
  %93 = load ptr, ptr %7, align 8, !tbaa !10
  %94 = load ptr, ptr %13, align 8, !tbaa !8
  %95 = getelementptr inbounds nuw %struct.DdNode, ptr %94, i32 0, i32 0
  %96 = load i32, ptr %95, align 8, !tbaa !14
  %97 = zext i32 %96 to i64
  %98 = getelementptr inbounds nuw i32, ptr %93, i64 %97
  %99 = load i32, ptr %98, align 4, !tbaa !12
  br label %100

100:                                              ; preds = %92, %91
  %101 = phi i32 [ 1, %91 ], [ %99, %92 ]
  store i32 %101, ptr %16, align 4, !tbaa !12
  %102 = getelementptr inbounds nuw %struct.cuddPathPair, ptr %12, i32 0, i32 0
  %103 = load i32, ptr %102, align 4, !tbaa !43
  %104 = getelementptr inbounds nuw %struct.cuddPathPair, ptr %11, i32 0, i32 0
  %105 = load i32, ptr %104, align 4, !tbaa !43
  %106 = load i32, ptr %16, align 4, !tbaa !12
  %107 = add nsw i32 %105, %106
  %108 = icmp slt i32 %103, %107
  br i1 %108, label %109, label %112

109:                                              ; preds = %100
  %110 = getelementptr inbounds nuw %struct.cuddPathPair, ptr %12, i32 0, i32 0
  %111 = load i32, ptr %110, align 4, !tbaa !43
  br label %117

112:                                              ; preds = %100
  %113 = getelementptr inbounds nuw %struct.cuddPathPair, ptr %11, i32 0, i32 0
  %114 = load i32, ptr %113, align 4, !tbaa !43
  %115 = load i32, ptr %16, align 4, !tbaa !12
  %116 = add nsw i32 %114, %115
  br label %117

117:                                              ; preds = %112, %109
  %118 = phi i32 [ %111, %109 ], [ %116, %112 ]
  %119 = getelementptr inbounds nuw %struct.cuddPathPair, ptr %5, i32 0, i32 0
  store i32 %118, ptr %119, align 4, !tbaa !43
  %120 = getelementptr inbounds nuw %struct.cuddPathPair, ptr %12, i32 0, i32 1
  %121 = load i32, ptr %120, align 4, !tbaa !41
  %122 = getelementptr inbounds nuw %struct.cuddPathPair, ptr %11, i32 0, i32 1
  %123 = load i32, ptr %122, align 4, !tbaa !41
  %124 = load i32, ptr %16, align 4, !tbaa !12
  %125 = add nsw i32 %123, %124
  %126 = icmp slt i32 %121, %125
  br i1 %126, label %127, label %130

127:                                              ; preds = %117
  %128 = getelementptr inbounds nuw %struct.cuddPathPair, ptr %12, i32 0, i32 1
  %129 = load i32, ptr %128, align 4, !tbaa !41
  br label %135

130:                                              ; preds = %117
  %131 = getelementptr inbounds nuw %struct.cuddPathPair, ptr %11, i32 0, i32 1
  %132 = load i32, ptr %131, align 4, !tbaa !41
  %133 = load i32, ptr %16, align 4, !tbaa !12
  %134 = add nsw i32 %132, %133
  br label %135

135:                                              ; preds = %130, %127
  %136 = phi i32 [ %129, %127 ], [ %134, %130 ]
  %137 = getelementptr inbounds nuw %struct.cuddPathPair, ptr %5, i32 0, i32 1
  store i32 %136, ptr %137, align 4, !tbaa !41
  %138 = load ptr, ptr %8, align 8, !tbaa !10
  %139 = icmp ne ptr %138, null
  br i1 %139, label %140, label %147

140:                                              ; preds = %135
  %141 = load ptr, ptr %8, align 8, !tbaa !10
  %142 = load ptr, ptr %13, align 8, !tbaa !8
  %143 = getelementptr inbounds nuw %struct.DdNode, ptr %142, i32 0, i32 0
  %144 = load i32, ptr %143, align 8, !tbaa !14
  %145 = zext i32 %144 to i64
  %146 = getelementptr inbounds nuw i32, ptr %141, i64 %145
  store i32 1, ptr %146, align 4, !tbaa !12
  br label %147

147:                                              ; preds = %140, %135
  br label %148

148:                                              ; preds = %147, %69
  %149 = call noalias ptr @malloc(i64 noundef 8) #7
  store ptr %149, ptr %10, align 8, !tbaa !39
  %150 = load ptr, ptr %10, align 8, !tbaa !39
  %151 = icmp eq ptr %150, null
  br i1 %151, label %152, label %167

152:                                              ; preds = %148
  %153 = load ptr, ptr %6, align 8, !tbaa !8
  %154 = ptrtoint ptr %153 to i64
  %155 = and i64 %154, 1
  %156 = trunc i64 %155 to i32
  %157 = icmp ne i32 %156, 0
  br i1 %157, label %158, label %166

158:                                              ; preds = %152
  call void @llvm.lifetime.start.p0(i64 4, ptr %20) #6
  %159 = getelementptr inbounds nuw %struct.cuddPathPair, ptr %5, i32 0, i32 0
  %160 = load i32, ptr %159, align 4, !tbaa !43
  store i32 %160, ptr %20, align 4, !tbaa !12
  %161 = getelementptr inbounds nuw %struct.cuddPathPair, ptr %5, i32 0, i32 1
  %162 = load i32, ptr %161, align 4, !tbaa !41
  %163 = getelementptr inbounds nuw %struct.cuddPathPair, ptr %5, i32 0, i32 0
  store i32 %162, ptr %163, align 4, !tbaa !43
  %164 = load i32, ptr %20, align 4, !tbaa !12
  %165 = getelementptr inbounds nuw %struct.cuddPathPair, ptr %5, i32 0, i32 1
  store i32 %164, ptr %165, align 4, !tbaa !41
  call void @llvm.lifetime.end.p0(i64 4, ptr %20) #6
  br label %166

166:                                              ; preds = %158, %152
  store i32 1, ptr %17, align 4
  br label %204

167:                                              ; preds = %148
  %168 = getelementptr inbounds nuw %struct.cuddPathPair, ptr %5, i32 0, i32 0
  %169 = load i32, ptr %168, align 4, !tbaa !43
  %170 = load ptr, ptr %10, align 8, !tbaa !39
  %171 = getelementptr inbounds nuw %struct.cuddPathPair, ptr %170, i32 0, i32 0
  store i32 %169, ptr %171, align 4, !tbaa !43
  %172 = getelementptr inbounds nuw %struct.cuddPathPair, ptr %5, i32 0, i32 1
  %173 = load i32, ptr %172, align 4, !tbaa !41
  %174 = load ptr, ptr %10, align 8, !tbaa !39
  %175 = getelementptr inbounds nuw %struct.cuddPathPair, ptr %174, i32 0, i32 1
  store i32 %173, ptr %175, align 4, !tbaa !41
  %176 = load ptr, ptr %9, align 8, !tbaa !37
  %177 = load ptr, ptr %13, align 8, !tbaa !8
  %178 = load ptr, ptr %10, align 8, !tbaa !39
  %179 = call i32 @st__insert(ptr noundef %176, ptr noundef %177, ptr noundef %178)
  %180 = load ptr, ptr %6, align 8, !tbaa !8
  %181 = ptrtoint ptr %180 to i64
  %182 = and i64 %181, 1
  %183 = trunc i64 %182 to i32
  %184 = icmp ne i32 %183, 0
  br i1 %184, label %185, label %194

185:                                              ; preds = %167
  %186 = load ptr, ptr %10, align 8, !tbaa !39
  %187 = getelementptr inbounds nuw %struct.cuddPathPair, ptr %186, i32 0, i32 1
  %188 = load i32, ptr %187, align 4, !tbaa !41
  %189 = getelementptr inbounds nuw %struct.cuddPathPair, ptr %5, i32 0, i32 0
  store i32 %188, ptr %189, align 4, !tbaa !43
  %190 = load ptr, ptr %10, align 8, !tbaa !39
  %191 = getelementptr inbounds nuw %struct.cuddPathPair, ptr %190, i32 0, i32 0
  %192 = load i32, ptr %191, align 4, !tbaa !43
  %193 = getelementptr inbounds nuw %struct.cuddPathPair, ptr %5, i32 0, i32 1
  store i32 %192, ptr %193, align 4, !tbaa !41
  br label %203

194:                                              ; preds = %167
  %195 = load ptr, ptr %10, align 8, !tbaa !39
  %196 = getelementptr inbounds nuw %struct.cuddPathPair, ptr %195, i32 0, i32 0
  %197 = load i32, ptr %196, align 4, !tbaa !43
  %198 = getelementptr inbounds nuw %struct.cuddPathPair, ptr %5, i32 0, i32 0
  store i32 %197, ptr %198, align 4, !tbaa !43
  %199 = load ptr, ptr %10, align 8, !tbaa !39
  %200 = getelementptr inbounds nuw %struct.cuddPathPair, ptr %199, i32 0, i32 1
  %201 = load i32, ptr %200, align 4, !tbaa !41
  %202 = getelementptr inbounds nuw %struct.cuddPathPair, ptr %5, i32 0, i32 1
  store i32 %201, ptr %202, align 4, !tbaa !41
  br label %203

203:                                              ; preds = %194, %185
  store i32 1, ptr %17, align 4
  br label %204

204:                                              ; preds = %203, %166, %53
  call void @llvm.lifetime.end.p0(i64 4, ptr %16) #6
  call void @llvm.lifetime.end.p0(i64 8, ptr %15) #6
  call void @llvm.lifetime.end.p0(i64 8, ptr %14) #6
  call void @llvm.lifetime.end.p0(i64 8, ptr %13) #6
  call void @llvm.lifetime.end.p0(i64 8, ptr %12) #6
  call void @llvm.lifetime.end.p0(i64 8, ptr %11) #6
  call void @llvm.lifetime.end.p0(i64 8, ptr %10) #6
  %205 = load i64, ptr %5, align 4
  ret i64 %205
}