; Function Attrs: nounwind uwtable
define internal fastcc i64 @getShortest(ptr noundef %0, ptr noundef %1, ptr noundef %2, ptr noundef %3) unnamed_addr #2 {
  %5 = alloca ptr, align 8
  call void @llvm.lifetime.start.p0(i64 8, ptr nonnull %5) #10
  %6 = ptrtoint ptr %0 to i64
  %7 = and i64 %6, -2
  %8 = inttoptr i64 %7 to ptr
  %9 = call i32 @st__lookup(ptr noundef %3, ptr noundef %8, ptr noundef nonnull %5) #10
  %.not = icmp eq i32 %9, 0
  br i1 %.not, label %14, label %10

10:                                               ; preds = %4
  %11 = and i64 %6, 1
  %.not48 = icmp eq i64 %11, 0
  %12 = load ptr, ptr %5, align 8
  %13 = getelementptr inbounds nuw i8, ptr %12, i64 4
  %.sroa.038.0.in = select i1 %.not48, ptr %12, ptr %13
  %.sroa.11.0.in = select i1 %.not48, ptr %13, ptr %12
  %.sroa.11.0 = load i32, ptr %.sroa.11.0.in, align 4, !tbaa !11
  %.sroa.038.0 = load i32, ptr %.sroa.038.0.in, align 4, !tbaa !11
  br label %53

14:                                               ; preds = %4
  %15 = load i32, ptr %8, align 8, !tbaa !3
  %16 = icmp eq i32 %15, 2147483647
  br i1 %16, label %17, label %19

17:                                               ; preds = %14
  %18 = load ptr, ptr @zero, align 8, !tbaa !29
  %.not45 = icmp eq ptr %18, %8
  %. = select i1 %.not45, i32 1000000, i32 0
  %.49 = select i1 %.not45, i32 0, i32 1000000
  br label %42

19:                                               ; preds = %14
  %20 = getelementptr inbounds nuw i8, ptr %8, i64 16
  %21 = load ptr, ptr %20, align 8, !tbaa !12
  %22 = getelementptr inbounds nuw i8, ptr %8, i64 24
  %23 = load ptr, ptr %22, align 8, !tbaa !12
  %24 = call fastcc i64 @getShortest(ptr noundef %21, ptr noundef %1, ptr noundef %2, ptr noundef %3)
  %.sroa.018.0.extract.trunc = trunc i64 %24 to i32
  %.sroa.520.0.extract.shift = lshr i64 %24, 32
  %.sroa.520.0.extract.trunc = trunc nuw i64 %.sroa.520.0.extract.shift to i32
  %25 = call fastcc i64 @getShortest(ptr noundef %23, ptr noundef %1, ptr noundef %2, ptr noundef %3)
  %.sroa.015.0.extract.trunc = trunc i64 %25 to i32
  %.sroa.5.0.extract.shift = lshr i64 %25, 32
  %.sroa.5.0.extract.trunc = trunc nuw i64 %.sroa.5.0.extract.shift to i32
  %26 = icmp eq ptr %1, null
  br i1 %26, label %32, label %27

27:                                               ; preds = %19
  %28 = load i32, ptr %8, align 8, !tbaa !3
  %29 = zext i32 %28 to i64
  %30 = getelementptr inbounds nuw i32, ptr %1, i64 %29
  %31 = load i32, ptr %30, align 4, !tbaa !11
  br label %32

32:                                               ; preds = %19, %27
  %33 = phi i32 [ %31, %27 ], [ 1, %19 ]
  %34 = add nsw i32 %33, %.sroa.018.0.extract.trunc
  %35 = call i32 @llvm.smin.i32(i32 %34, i32 %.sroa.015.0.extract.trunc)
  %36 = add nsw i32 %33, %.sroa.520.0.extract.trunc
  %37 = call i32 @llvm.smin.i32(i32 %36, i32 %.sroa.5.0.extract.trunc)
  %.not44 = icmp eq ptr %2, null
  br i1 %.not44, label %42, label %38

38:                                               ; preds = %32
  %39 = load i32, ptr %8, align 8, !tbaa !3
  %40 = zext i32 %39 to i64
  %41 = getelementptr inbounds nuw i32, ptr %2, i64 %40
  store i32 1, ptr %41, align 4, !tbaa !11
  br label %42

42:                                               ; preds = %17, %32, %38
  %.sroa.038.2 = phi i32 [ %35, %38 ], [ %35, %32 ], [ %., %17 ]
  %.sroa.11.2 = phi i32 [ %37, %38 ], [ %37, %32 ], [ %.49, %17 ]
  %43 = call noalias dereferenceable_or_null(8) ptr @malloc(i64 noundef 8) #11
  store ptr %43, ptr %5, align 8, !tbaa !35
  %44 = icmp eq ptr %43, null
  br i1 %44, label %45, label %47

45:                                               ; preds = %42
  %46 = and i64 %6, 1
  %.not47 = icmp eq i64 %46, 0
  %spec.select = select i1 %.not47, i32 %.sroa.038.2, i32 %.sroa.11.2
  %spec.select50 = select i1 %.not47, i32 %.sroa.11.2, i32 %.sroa.038.2
  br label %53

47:                                               ; preds = %42
  store i32 %.sroa.038.2, ptr %43, align 4, !tbaa !39
  %48 = getelementptr inbounds nuw i8, ptr %43, i64 4
  store i32 %.sroa.11.2, ptr %48, align 4, !tbaa !37
  %49 = call i32 @st__insert(ptr noundef %3, ptr noundef nonnull %8, ptr noundef nonnull %43) #10
  %50 = and i64 %6, 1
  %.not46 = icmp eq i64 %50, 0
  %51 = load ptr, ptr %5, align 8
  %52 = getelementptr inbounds nuw i8, ptr %51, i64 4
  %.sroa.038.4.in = select i1 %.not46, ptr %51, ptr %52
  %.sroa.11.4.in = select i1 %.not46, ptr %52, ptr %51
  %.sroa.11.4 = load i32, ptr %.sroa.11.4.in, align 4, !tbaa !11
  %.sroa.038.4 = load i32, ptr %.sroa.038.4.in, align 4, !tbaa !11
  br label %53

53:                                               ; preds = %47, %45, %10
  %.sroa.038.1 = phi i32 [ %.sroa.038.0, %10 ], [ %spec.select, %45 ], [ %.sroa.038.4, %47 ]
  %.sroa.11.1 = phi i32 [ %.sroa.11.0, %10 ], [ %spec.select50, %45 ], [ %.sroa.11.4, %47 ]
  call void @llvm.lifetime.end.p0(i64 8, ptr nonnull %5) #10
  %.sroa.11.0.insert.ext = zext i32 %.sroa.11.1 to i64
  %.sroa.11.0.insert.shift = shl nuw i64 %.sroa.11.0.insert.ext, 32
  %.sroa.038.0.insert.ext = zext i32 %.sroa.038.1 to i64
  %.sroa.038.0.insert.insert = or disjoint i64 %.sroa.11.0.insert.shift, %.sroa.038.0.insert.ext
  ret i64 %.sroa.038.0.insert.insert
}